; Function Attrs: mustprogress uwtable
define noundef nonnull align 8 dereferenceable(8) ptr @_ZN3nixlsERSoRKNS_19ExperimentalFeatureE(ptr noundef nonnull align 8 dereferenceable(8) %0, ptr nocapture noundef nonnull readonly align 4 dereferenceable(4) %1) local_unnamed_addr #2 {
  %3 = load i32, ptr %1, align 4
  %4 = sext i32 %3 to i64
  %5 = getelementptr inbounds [19 x %"struct.nix::ExperimentalFeatureDetails"], ptr @_ZN3nixL16xpFeatureDetailsE, i64 0, i64 %4
  %6 = getelementptr inbounds i8, ptr %5, i64 8
  %.sroa.0.0.copyload.i = load i64, ptr %6, align 8
  %.sroa.2.0..sroa_idx.i = getelementptr inbounds i8, ptr %5, i64 16
  %.sroa.2.0.copyload.i = load ptr, ptr %.sroa.2.0..sroa_idx.i, align 8
  %7 = tail call noundef nonnull align 8 dereferenceable(8) ptr @_ZSt16__ostream_insertIcSt11char_traitsIcEERSt13basic_ostreamIT_T0_ES6_PKS3_l(ptr noundef nonnull align 8 dereferenceable(8) %0, ptr noundef %.sroa.2.0.copyload.i, i64 noundef %.sroa.0.0.copyload.i)
  ret ptr %7
}